target datalayout = "e-m:e-p270:32:32-p271:32:32-p272:64:64-i64:64-i128:128-f80:128-n8:16:32:64-S128"
target triple = "x86_64-pc-linux-gnu"

%"struct.std::nullopt_t" = type { i8 }
%"struct.std::pair.85" = type { i64, %"class.std::optional.87" }
%"class.std::optional.87" = type { %"struct.std::_Optional_base.88" }
%"struct.std::_Optional_base.88" = type { %"struct.std::_Optional_payload.90" }
%"struct.std::_Optional_payload.90" = type { %"struct.std::_Optional_payload_base.base.92", [7 x i8] }
%"struct.std::_Optional_payload_base.base.92" = type <{ %"union.std::_Optional_payload_base<unsigned long>::_Storage", i8 }>
%"union.std::_Optional_payload_base<unsigned long>::_Storage" = type { i64 }
%"struct.Luau::TypePackIterator" = type { ptr, ptr, i64, ptr }
%"class.std::optional.95" = type { %"struct.std::_Optional_base.96" }
%"struct.std::_Optional_base.96" = type { %"struct.std::_Optional_payload.98" }
%"struct.std::_Optional_payload.98" = type { %"struct.std::_Optional_payload_base.base.100", [7 x i8] }
%"struct.std::_Optional_payload_base.base.100" = type <{ %"union.std::_Optional_payload_base<const Luau::TypePackVar *>::_Storage", i8 }>
%"union.std::_Optional_payload_base<const Luau::TypePackVar *>::_Storage" = type { ptr }
%"struct.std::_Optional_payload_base.99" = type <{ %"union.std::_Optional_payload_base<const Luau::TypePackVar *>::_Storage", i8, [7 x i8] }>
%"struct.std::_Optional_payload_base.91" = type <{ %"union.std::_Optional_payload_base<unsigned long>::_Storage", i8, [7 x i8] }>

@_ZSt7nullopt = linkonce_odr dso_local constant %"struct.std::nullopt_t" undef, comdat, align 1

; Function Attrs: mustprogress nounwind uwtable
define linkonce_odr dso_local void @_ZNSt22_Optional_payload_baseImE8_StorageImLb1EEC2IJmEEESt10in_place_tDpOT_(ptr noundef nonnull align 8 dereferenceable(8) %0, ptr noundef nonnull align 8 dereferenceable(8) %1) unnamed_addr #2 comdat align 2 {
  %3 = alloca ptr, align 8
  %4 = alloca ptr, align 8
  store ptr %0, ptr %3, align 8, !tbaa !802
  store ptr %1, ptr %4, align 8, !tbaa !133
  %5 = load ptr, ptr %3, align 8
  %6 = load ptr, ptr %4, align 8, !tbaa !133
  %7 = load i64, ptr %6, align 8, !tbaa !126
  store i64 %7, ptr %5, align 8, !tbaa !344
  ret void
}

; Function Attrs: mustprogress nounwind uwtable
define linkonce_odr dso_local void @_ZNSt22_Optional_payload_baseImE8_StorageImLb1EEC2Ev(ptr noundef nonnull align 8 dereferenceable(8) %0) unnamed_addr #2 comdat align 2 {
  %2 = alloca ptr, align 8
  store ptr %0, ptr %2, align 8, !tbaa !802
  ret void
}

; Function Attrs: mustprogress uwtable
define linkonce_odr dso_local void @_ZNSt22_Optional_payload_baseImEC2IJmEEESt10in_place_tDpOT_(ptr noundef nonnull align 8 dereferenceable(9) %0, ptr noundef nonnull align 8 dereferenceable(8) %1) unnamed_addr #3 comdat align 2 {
  %3 = alloca ptr, align 8
  %4 = alloca ptr, align 8
  store ptr %0, ptr %3, align 8, !tbaa !799
  store ptr %1, ptr %4, align 8, !tbaa !133
  %5 = load ptr, ptr %3, align 8
  %6 = getelementptr inbounds nuw %"struct.std::_Optional_payload_base.91", ptr %5, i32 0, i32 0
  %7 = load ptr, ptr %4, align 8, !tbaa !133
  call void @_ZNSt22_Optional_payload_baseImE8_StorageImLb1EEC2IJmEEESt10in_place_tDpOT_(ptr noundef nonnull align 8 dereferenceable(8) %6, ptr noundef nonnull align 8 dereferenceable(8) %7)
  %8 = getelementptr inbounds nuw %"struct.std::_Optional_payload_base.91", ptr %5, i32 0, i32 1
  store i8 1, ptr %8, align 8, !tbaa !801
  ret void
}

; Function Attrs: mustprogress nounwind uwtable
define linkonce_odr dso_local void @_ZNSt22_Optional_payload_baseImEC2Ev(ptr noundef nonnull align 8 dereferenceable(9) %0) unnamed_addr #2 comdat align 2 {
  %2 = alloca ptr, align 8
  store ptr %0, ptr %2, align 8, !tbaa !799
  %3 = load ptr, ptr %2, align 8
  %4 = getelementptr inbounds nuw %"struct.std::_Optional_payload_base.91", ptr %3, i32 0, i32 0
  call void @_ZNSt22_Optional_payload_baseImE8_StorageImLb1EEC2Ev(ptr noundef nonnull align 8 dereferenceable(8) %4) #19
  %5 = getelementptr inbounds nuw %"struct.std::_Optional_payload_base.91", ptr %3, i32 0, i32 1
  store i8 0, ptr %5, align 8, !tbaa !801
  ret void
}

; Function Attrs: inlinehint mustprogress uwtable
define linkonce_odr dso_local void @_ZNSt17_Optional_payloadImLb1ELb1ELb1EECI2St22_Optional_payload_baseImEIJmEEESt10in_place_tDpOT_(ptr noundef nonnull align 8 dereferenceable(9) %0, ptr noundef nonnull align 8 dereferenceable(8) %1) unnamed_addr #5 comdat align 2 {
  %3 = alloca ptr, align 8
  %4 = alloca ptr, align 8
  store ptr %0, ptr %3, align 8, !tbaa !797
  store ptr %1, ptr %4, align 8, !tbaa !133
  %5 = load ptr, ptr %3, align 8
  %6 = load ptr, ptr %4, align 8
  call void @_ZNSt22_Optional_payload_baseImEC2IJmEEESt10in_place_tDpOT_(ptr noundef nonnull align 8 dereferenceable(9) %5, ptr noundef nonnull align 8 dereferenceable(8) %6)
  ret void
}

; Function Attrs: mustprogress nounwind uwtable
define linkonce_odr dso_local void @_ZNSt17_Optional_payloadImLb1ELb1ELb1EEC2Ev(ptr noundef nonnull align 8 dereferenceable(9) %0) unnamed_addr #2 comdat align 2 {
  %2 = alloca ptr, align 8
  store ptr %0, ptr %2, align 8, !tbaa !797
  %3 = load ptr, ptr %2, align 8
  call void @_ZNSt22_Optional_payload_baseImEC2Ev(ptr noundef nonnull align 8 dereferenceable(9) %3) #19
  ret void
}

; Function Attrs: noinline noreturn nounwind uwtable
define linkonce_odr hidden void @__clang_call_terminate(ptr noundef %0) #10 comdat {
  %2 = call ptr @__cxa_begin_catch(ptr %0) #19
  call void @_ZSt9terminatev() #20
  unreachable
}

; Function Attrs: mustprogress uwtable
define linkonce_odr dso_local void @_ZNSt14_Optional_baseImLb1ELb1EEC2IJmETnNSt9enable_ifIX18is_constructible_vImDpT_EEbE4typeELb0EEESt10in_place_tDpOS3_(ptr noundef nonnull align 8 dereferenceable(16) %0, ptr noundef nonnull align 8 dereferenceable(8) %1) unnamed_addr #3 comdat align 2 {
  %3 = alloca ptr, align 8
  %4 = alloca ptr, align 8
  store ptr %0, ptr %3, align 8, !tbaa !795
  store ptr %1, ptr %4, align 8, !tbaa !133
  %5 = load ptr, ptr %3, align 8
  %6 = getelementptr inbounds nuw %"struct.std::_Optional_base.88", ptr %5, i32 0, i32 0
  %7 = load ptr, ptr %4, align 8, !tbaa !133
  call void @_ZNSt17_Optional_payloadImLb1ELb1ELb1EECI2St22_Optional_payload_baseImEIJmEEESt10in_place_tDpOT_(ptr noundef nonnull align 8 dereferenceable(9) %6, ptr noundef nonnull align 8 dereferenceable(8) %7)
  ret void
}

; Function Attrs: mustprogress nounwind uwtable
define linkonce_odr dso_local void @_ZNSt14_Optional_baseImLb1ELb1EEC2Ev(ptr noundef nonnull align 8 dereferenceable(16) %0) unnamed_addr #2 comdat align 2 {
  %2 = alloca ptr, align 8
  store ptr %0, ptr %2, align 8, !tbaa !795
  %3 = load ptr, ptr %2, align 8
  %4 = getelementptr inbounds nuw %"struct.std::_Optional_base.88", ptr %3, i32 0, i32 0
  call void @_ZNSt17_Optional_payloadImLb1ELb1ELb1EEC2Ev(ptr noundef nonnull align 8 dereferenceable(9) %4) #19
  ret void
}

; Function Attrs: mustprogress nounwind uwtable
define linkonce_odr dso_local noundef nonnull align 8 dereferenceable(8) ptr @_ZNSt22_Optional_payload_baseIPKN4Luau11TypePackVarEE6_M_getEv(ptr noundef nonnull align 8 dereferenceable(9) %0) #2 comdat align 2 {
  %2 = alloca ptr, align 8
  store ptr %0, ptr %2, align 8, !tbaa !791
  %3 = load ptr, ptr %2, align 8
  %4 = getelementptr inbounds nuw %"struct.std::_Optional_payload_base.99", ptr %3, i32 0, i32 0
  ret ptr %4
}

; Function Attrs: mustprogress nounwind uwtable
define linkonce_odr dso_local void @_ZNSt8optionalImEC2ImTnNSt9enable_ifIX7__and_vISt6__not_ISt7is_sameIS0_NSt9remove_cvINSt16remove_referenceIT_E4typeEE4typeEEES3_IS4_ISt10in_place_tSB_EESt16is_constructibleImJS7_EESt14is_convertibleIS7_mEEEbE4typeELb1EEEOS7_(ptr noundef nonnull align 8 dereferenceable(16) %0, ptr noundef nonnull align 8 dereferenceable(8) %1) unnamed_addr #2 comdat align 2 personality ptr @__gxx_personality_v0 {
  %3 = alloca ptr, align 8
  %4 = alloca ptr, align 8
  store ptr %0, ptr %3, align 8, !tbaa !793
  store ptr %1, ptr %4, align 8, !tbaa !133
  %5 = load ptr, ptr %3, align 8
  %6 = load ptr, ptr %4, align 8, !tbaa !133
  invoke void @_ZNSt14_Optional_baseImLb1ELb1EEC2IJmETnNSt9enable_ifIX18is_constructible_vImDpT_EEbE4typeELb0EEESt10in_place_tDpOS3_(ptr noundef nonnull align 8 dereferenceable(16) %5, ptr noundef nonnull align 8 dereferenceable(8) %6)
          to label %7 unwind label %8

7:                                                ; preds = %2
  ret void

8:                                                ; preds = %2
  %9 = landingpad { ptr, i32 }
          catch ptr null
  %10 = extractvalue { ptr, i32 } %9, 0
  call void @__clang_call_terminate(ptr %10) #20
  unreachable
}

; Function Attrs: mustprogress nounwind uwtable
define linkonce_odr dso_local void @_ZNSt8optionalImEC2ESt9nullopt_t(ptr noundef nonnull align 8 dereferenceable(16) %0) unnamed_addr #2 comdat align 2 {
  %2 = alloca ptr, align 8
  store ptr %0, ptr %2, align 8, !tbaa !793
  %3 = load ptr, ptr %2, align 8
  call void @_ZNSt14_Optional_baseImLb1ELb1EEC2Ev(ptr noundef nonnull align 8 dereferenceable(16) %3) #19
  ret void
}

; Function Attrs: mustprogress nounwind uwtable
define linkonce_odr dso_local noundef nonnull align 8 dereferenceable(8) ptr @_ZNSt19_Optional_base_implIPKN4Luau11TypePackVarESt14_Optional_baseIS3_Lb1ELb1EEE6_M_getEv(ptr noundef nonnull align 1 dereferenceable(1) %0) #2 comdat align 2 {
  %2 = alloca ptr, align 8
  store ptr %0, ptr %2, align 8, !tbaa !787
  %3 = load ptr, ptr %2, align 8
  br label %4

4:                                                ; preds = %1
  br label %5

5:                                                ; preds = %4
  br label %6

6:                                                ; preds = %5
  %7 = getelementptr inbounds nuw %"struct.std::_Optional_base.96", ptr %3, i32 0, i32 0
  %8 = call noundef nonnull align 8 dereferenceable(8) ptr @_ZNSt22_Optional_payload_baseIPKN4Luau11TypePackVarEE6_M_getEv(ptr noundef nonnull align 8 dereferenceable(9) %7) #19
  ret ptr %8
}

; Function Attrs: mustprogress nounwind uwtable
define linkonce_odr dso_local noundef zeroext i1 @_ZNKSt19_Optional_base_implIPKN4Luau11TypePackVarESt14_Optional_baseIS3_Lb1ELb1EEE13_M_is_engagedEv(ptr noundef nonnull align 1 dereferenceable(1) %0) #2 comdat align 2 {
  %2 = alloca ptr, align 8
  store ptr %0, ptr %2, align 8, !tbaa !787
  %3 = load ptr, ptr %2, align 8
  %4 = getelementptr inbounds nuw %"struct.std::_Optional_base.96", ptr %3, i32 0, i32 0
  %5 = getelementptr inbounds nuw %"struct.std::_Optional_payload_base.99", ptr %4, i32 0, i32 1
  %6 = load i8, ptr %5, align 8, !tbaa !789, !range !120, !noundef !121
  %7 = trunc i8 %6 to i1
  ret i1 %7
}

; Function Attrs: mustprogress nounwind uwtable
define linkonce_odr dso_local void @_ZNSt4pairImSt8optionalImEEC2IRmmTnNSt9enable_ifIXaaclsr5_PCCPE22_MoveConstructiblePairIT_T0_EEclsr5_PCCPE30_ImplicitlyMoveConvertiblePairIS6_S7_EEEbE4typeELb1EEEOS6_OS7_(ptr noundef nonnull align 8 dereferenceable(24) %0, ptr noundef nonnull align 8 dereferenceable(8) %1, ptr noundef nonnull align 8 dereferenceable(8) %2) unnamed_addr #2 comdat align 2 {
  %4 = alloca ptr, align 8
  %5 = alloca ptr, align 8
  %6 = alloca ptr, align 8
  store ptr %0, ptr %4, align 8, !tbaa !131
  store ptr %1, ptr %5, align 8, !tbaa !133
  store ptr %2, ptr %6, align 8, !tbaa !133
  %7 = load ptr, ptr %4, align 8
  %8 = getelementptr inbounds nuw %"struct.std::pair.85", ptr %7, i32 0, i32 0
  %9 = load ptr, ptr %5, align 8, !tbaa !133
  %10 = load i64, ptr %9, align 8, !tbaa !126
  store i64 %10, ptr %8, align 8, !tbaa !137
  %11 = getelementptr inbounds nuw %"struct.std::pair.85", ptr %7, i32 0, i32 1
  %12 = load ptr, ptr %6, align 8, !tbaa !133
  call void @_ZNSt8optionalImEC2ImTnNSt9enable_ifIX7__and_vISt6__not_ISt7is_sameIS0_NSt9remove_cvINSt16remove_referenceIT_E4typeEE4typeEEES3_IS4_ISt10in_place_tSB_EESt16is_constructibleImJS7_EESt14is_convertibleIS7_mEEEbE4typeELb1EEEOS7_(ptr noundef nonnull align 8 dereferenceable(16) %11, ptr noundef nonnull align 8 dereferenceable(8) %12) #19
  ret void
}

; Function Attrs: mustprogress nounwind uwtable
define linkonce_odr dso_local void @_ZNSt4pairImSt8optionalImEEC2IRmRKSt9nullopt_tTnNSt9enable_ifIXaaclsr5_PCCPE22_MoveConstructiblePairIT_T0_EEclsr5_PCCPE30_ImplicitlyMoveConvertiblePairIS9_SA_EEEbE4typeELb1EEEOS9_OSA_(ptr noundef nonnull align 8 dereferenceable(24) %0, ptr noundef nonnull align 8 dereferenceable(8) %1, ptr noundef nonnull align 1 dereferenceable(1) %2) unnamed_addr #2 comdat align 2 {
  %4 = alloca ptr, align 8
  %5 = alloca ptr, align 8
  %6 = alloca ptr, align 8
  store ptr %0, ptr %4, align 8, !tbaa !131
  store ptr %1, ptr %5, align 8, !tbaa !133
  store ptr %2, ptr %6, align 8, !tbaa !135
  %7 = load ptr, ptr %4, align 8
  %8 = getelementptr inbounds nuw %"struct.std::pair.85", ptr %7, i32 0, i32 0
  %9 = load ptr, ptr %5, align 8, !tbaa !133
  %10 = load i64, ptr %9, align 8, !tbaa !126
  store i64 %10, ptr %8, align 8, !tbaa !137
  %11 = getelementptr inbounds nuw %"struct.std::pair.85", ptr %7, i32 0, i32 1
  call void @_ZNSt8optionalImEC2ESt9nullopt_t(ptr noundef nonnull align 8 dereferenceable(16) %11) #19
  ret void
}

; Function Attrs: mustprogress nounwind uwtable
define linkonce_odr dso_local noundef nonnull align 8 dereferenceable(8) ptr @_ZNOSt8optionalIPKN4Luau11TypePackVarEEdeEv(ptr noundef nonnull align 8 dereferenceable(16) %0) #2 comdat align 2 {
  %2 = alloca ptr, align 8
  store ptr %0, ptr %2, align 8, !tbaa !129
  %3 = load ptr, ptr %2, align 8
  %4 = call noundef nonnull align 8 dereferenceable(8) ptr @_ZNSt19_Optional_base_implIPKN4Luau11TypePackVarESt14_Optional_baseIS3_Lb1ELb1EEE6_M_getEv(ptr noundef nonnull align 1 dereferenceable(1) %3) #19
  ret ptr %4
}

; Function Attrs: mustprogress nounwind uwtable
define linkonce_odr dso_local noundef zeroext i1 @_ZNKSt8optionalIPKN4Luau11TypePackVarEEcvbEv(ptr noundef nonnull align 8 dereferenceable(16) %0) #2 comdat align 2 {
  %2 = alloca ptr, align 8
  store ptr %0, ptr %2, align 8, !tbaa !129
  %3 = load ptr, ptr %2, align 8
  %4 = call noundef zeroext i1 @_ZNKSt19_Optional_base_implIPKN4Luau11TypePackVarESt14_Optional_baseIS3_Lb1ELb1EEE13_M_is_engagedEv(ptr noundef nonnull align 1 dereferenceable(1) %3) #19
  ret i1 %4
}

; Function Attrs: mustprogress uwtable
define dso_local void @_ZN4Luau19getParameterExtentsEPKNS_6TxnLogEPKNS_11TypePackVarEb(ptr dead_on_unwind noalias writable sret(%"struct.std::pair.85") align 8 %0, ptr noundef %1, ptr noundef %2, i1 noundef zeroext %3) #3 {
  %5 = alloca ptr, align 8
  %6 = alloca ptr, align 8
  %7 = alloca i8, align 1
  %8 = alloca i64, align 8
  %9 = alloca i64, align 8
  %10 = alloca %"struct.Luau::TypePackIterator", align 8
  %11 = alloca %"struct.Luau::TypePackIterator", align 8
  %12 = alloca ptr, align 8
  %13 = alloca %"class.std::optional.95", align 8
  %14 = alloca %"class.std::optional.95", align 8
  %15 = alloca i32, align 4
  %16 = alloca i64, align 8
  store ptr %1, ptr %5, align 8, !tbaa !122
  store ptr %2, ptr %6, align 8, !tbaa !124
  %17 = zext i1 %3 to i8
  store i8 %17, ptr %7, align 1, !tbaa !125
  call void @llvm.lifetime.start.p0(i64 8, ptr %8) #19
  store i64 0, ptr %8, align 8, !tbaa !126
  call void @llvm.lifetime.start.p0(i64 8, ptr %9) #19
  store i64 0, ptr %9, align 8, !tbaa !126
  call void @llvm.lifetime.start.p0(i64 32, ptr %10) #19
  %18 = load ptr, ptr %6, align 8, !tbaa !124
  %19 = load ptr, ptr %5, align 8, !tbaa !122
  call void @_ZN4Luau5beginEPKNS_11TypePackVarEPKNS_6TxnLogE(ptr dead_on_unwind writable sret(%"struct.Luau::TypePackIterator") align 8 %10, ptr noundef %18, ptr noundef %19)
  call void @llvm.lifetime.start.p0(i64 32, ptr %11) #19
  %20 = load ptr, ptr %6, align 8, !tbaa !124
  call void @_ZN4Luau3endEPKNS_11TypePackVarE(ptr dead_on_unwind writable sret(%"struct.Luau::TypePackIterator") align 8 %11, ptr noundef %20)
  br label %21

21:                                               ; preds = %37, %4
  %22 = call noundef zeroext i1 @_ZN4Luau16TypePackIteratorneERKS0_(ptr noundef nonnull align 8 dereferenceable(32) %10, ptr noundef nonnull align 8 dereferenceable(32) %11)
  br i1 %22, label %23, label %39

23:                                               ; preds = %21
  call void @llvm.lifetime.start.p0(i64 8, ptr %12) #19
  %24 = call noundef nonnull align 8 dereferenceable(8) ptr @_ZN4Luau16TypePackIteratordeEv(ptr noundef nonnull align 8 dereferenceable(32) %10)
  %25 = load ptr, ptr %24, align 8, !tbaa !12
  store ptr %25, ptr %12, align 8, !tbaa !12
  %26 = load ptr, ptr %12, align 8, !tbaa !12
  %27 = call noundef zeroext i1 @_ZN4Luau10isOptionalEPKNS_4TypeE(ptr noundef %26)
  br i1 %27, label %28, label %31

28:                                               ; preds = %23
  %29 = load i64, ptr %9, align 8, !tbaa !126
  %30 = add i64 %29, 1
  store i64 %30, ptr %9, align 8, !tbaa !126
  br label %37

31:                                               ; preds = %23
  %32 = load i64, ptr %9, align 8, !tbaa !126
  %33 = load i64, ptr %8, align 8, !tbaa !126
  %34 = add i64 %33, %32
  store i64 %34, ptr %8, align 8, !tbaa !126
  store i64 0, ptr %9, align 8, !tbaa !126
  %35 = load i64, ptr %8, align 8, !tbaa !126
  %36 = add i64 %35, 1
  store i64 %36, ptr %8, align 8, !tbaa !126
  br label %37

37:                                               ; preds = %31, %28
  %38 = call noundef nonnull align 8 dereferenceable(32) ptr @_ZN4Luau16TypePackIteratorppEv(ptr noundef nonnull align 8 dereferenceable(32) %10)
  call void @llvm.lifetime.end.p0(i64 8, ptr %12) #19
  br label %21, !llvm.loop !128

39:                                               ; preds = %21
  call void @llvm.lifetime.start.p0(i64 16, ptr %13) #19
  %40 = call { ptr, i8 } @_ZN4Luau16TypePackIterator4tailEv(ptr noundef nonnull align 8 dereferenceable(32) %10)
  %41 = getelementptr inbounds nuw %"class.std::optional.95", ptr %13, i32 0, i32 0
  %42 = getelementptr inbounds nuw %"struct.std::_Optional_base.96", ptr %41, i32 0, i32 0
  %43 = getelementptr inbounds nuw { ptr, i8 }, ptr %42, i32 0, i32 0
  %44 = extractvalue { ptr, i8 } %40, 0
  store ptr %44, ptr %43, align 8
  %45 = getelementptr inbounds nuw { ptr, i8 }, ptr %42, i32 0, i32 1
  %46 = extractvalue { ptr, i8 } %40, 1
  store i8 %46, ptr %45, align 8
  %47 = call noundef zeroext i1 @_ZNKSt8optionalIPKN4Luau11TypePackVarEEcvbEv(ptr noundef nonnull align 8 dereferenceable(16) %13) #19
  call void @llvm.lifetime.start.p0(i64 16, ptr %14) #19
  br i1 %47, label %48, label %62

48:                                               ; preds = %39
  %49 = call { ptr, i8 } @_ZN4Luau16TypePackIterator4tailEv(ptr noundef nonnull align 8 dereferenceable(32) %10)
  %50 = getelementptr inbounds nuw %"class.std::optional.95", ptr %14, i32 0, i32 0
  %51 = getelementptr inbounds nuw %"struct.std::_Optional_base.96", ptr %50, i32 0, i32 0
  %52 = getelementptr inbounds nuw { ptr, i8 }, ptr %51, i32 0, i32 0
  %53 = extractvalue { ptr, i8 } %49, 0
  store ptr %53, ptr %52, align 8
  %54 = getelementptr inbounds nuw { ptr, i8 }, ptr %51, i32 0, i32 1
  %55 = extractvalue { ptr, i8 } %49, 1
  store i8 %55, ptr %54, align 8
  %56 = call noundef nonnull align 8 dereferenceable(8) ptr @_ZNOSt8optionalIPKN4Luau11TypePackVarEEdeEv(ptr noundef nonnull align 8 dereferenceable(16) %14) #19
  %57 = load ptr, ptr %56, align 8, !tbaa !124
  %58 = load ptr, ptr %5, align 8, !tbaa !122
  %59 = load i8, ptr %7, align 1, !tbaa !125, !range !120, !noundef !121
  %60 = trunc i8 %59 to i1
  %61 = call noundef zeroext i1 @_ZN4Luau14isVariadicTailEPKNS_11TypePackVarERKNS_6TxnLogEb(ptr noundef %57, ptr noundef nonnull align 8 dereferenceable(128) %58, i1 noundef zeroext %60)
  br label %62

62:                                               ; preds = %48, %39
  %63 = phi i1 [ false, %39 ], [ %61, %48 ]
  call void @llvm.lifetime.end.p0(i64 16, ptr %14) #19
  call void @llvm.lifetime.end.p0(i64 16, ptr %13) #19
  br i1 %63, label %64, label %65

64:                                               ; preds = %62
  call void @_ZNSt4pairImSt8optionalImEEC2IRmRKSt9nullopt_tTnNSt9enable_ifIXaaclsr5_PCCPE22_MoveConstructiblePairIT_T0_EEclsr5_PCCPE30_ImplicitlyMoveConvertiblePairIS9_SA_EEEbE4typeELb1EEEOS9_OSA_(ptr noundef nonnull align 8 dereferenceable(24) %0, ptr noundef nonnull align 8 dereferenceable(8) %8, ptr noundef nonnull align 1 dereferenceable(1) @_ZSt7nullopt)
  store i32 1, ptr %15, align 4
  br label %69

65:                                               ; preds = %62
  call void @llvm.lifetime.start.p0(i64 8, ptr %16) #19
  %66 = load i64, ptr %8, align 8, !tbaa !126
  %67 = load i64, ptr %9, align 8, !tbaa !126
  %68 = add i64 %66, %67
  store i64 %68, ptr %16, align 8, !tbaa !126
  call void @_ZNSt4pairImSt8optionalImEEC2IRmmTnNSt9enable_ifIXaaclsr5_PCCPE22_MoveConstructiblePairIT_T0_EEclsr5_PCCPE30_ImplicitlyMoveConvertiblePairIS6_S7_EEEbE4typeELb1EEEOS6_OS7_(ptr noundef nonnull align 8 dereferenceable(24) %0, ptr noundef nonnull align 8 dereferenceable(8) %8, ptr noundef nonnull align 8 dereferenceable(8) %16)
  call void @llvm.lifetime.end.p0(i64 8, ptr %16) #19
  store i32 1, ptr %15, align 4
  br label %69

69:                                               ; preds = %65, %64
  call void @llvm.lifetime.end.p0(i64 32, ptr %11) #19
  call void @llvm.lifetime.end.p0(i64 32, ptr %10) #19
  call void @llvm.lifetime.end.p0(i64 8, ptr %9) #19
  call void @llvm.lifetime.end.p0(i64 8, ptr %8) #19
  ret void
}