; Function Attrs: mustprogress uwtable
define dso_local void @_ZN4Luau19getParameterExtentsEPKNS_6TxnLogEPKNS_11TypePackVarEb(ptr dead_on_unwind noalias writable writeonly sret(%"struct.std::pair.85") align 8 captures(none) %0, ptr noundef %1, ptr noundef %2, i1 noundef zeroext %3) local_unnamed_addr #3 personality ptr @__gxx_personality_v0 {
  %5 = alloca %"struct.Luau::TypePackIterator", align 8
  %6 = alloca %"struct.Luau::TypePackIterator", align 8
  call void @llvm.lifetime.start.p0(i64 32, ptr nonnull %5) #26
  call void @_ZN4Luau5beginEPKNS_11TypePackVarEPKNS_6TxnLogE(ptr dead_on_unwind nonnull writable sret(%"struct.Luau::TypePackIterator") align 8 %5, ptr noundef %2, ptr noundef %1)
  call void @llvm.lifetime.start.p0(i64 32, ptr nonnull %6) #26
  call void @_ZN4Luau3endEPKNS_11TypePackVarE(ptr dead_on_unwind nonnull writable sret(%"struct.Luau::TypePackIterator") align 8 %6, ptr noundef %2)
  %7 = call noundef zeroext i1 @_ZN4Luau16TypePackIteratorneERKS0_(ptr noundef nonnull align 8 dereferenceable(32) %5, ptr noundef nonnull align 8 dereferenceable(32) %6)
  br i1 %7, label %.lr.ph, label %._crit_edge

.lr.ph:                                           ; preds = %4, %.lr.ph
  %.017 = phi i64 [ %.1, %.lr.ph ], [ 0, %4 ]
  %.01416 = phi i64 [ %.115, %.lr.ph ], [ 0, %4 ]
  %8 = call noundef nonnull align 8 dereferenceable(8) ptr @_ZN4Luau16TypePackIteratordeEv(ptr noundef nonnull align 8 dereferenceable(32) %5)
  %9 = load ptr, ptr %8, align 8, !tbaa !49
  %10 = call noundef zeroext i1 @_ZN4Luau10isOptionalEPKNS_4TypeE(ptr noundef %9)
  %11 = add i64 %.017, 1
  %12 = select i1 %10, i64 0, i64 %11
  %.115 = add i64 %.01416, %12
  %.1 = select i1 %10, i64 %11, i64 0
  %13 = call noundef nonnull align 8 dereferenceable(32) ptr @_ZN4Luau16TypePackIteratorppEv(ptr noundef nonnull align 8 dereferenceable(32) %5)
  %14 = call noundef zeroext i1 @_ZN4Luau16TypePackIteratorneERKS0_(ptr noundef nonnull align 8 dereferenceable(32) %5, ptr noundef nonnull align 8 dereferenceable(32) %6)
  br i1 %14, label %.lr.ph, label %._crit_edge, !llvm.loop !207

._crit_edge:                                      ; preds = %.lr.ph, %4
  %.014.lcssa = phi i64 [ 0, %4 ], [ %.115, %.lr.ph ]
  %.0.lcssa = phi i64 [ 0, %4 ], [ %.1, %.lr.ph ]
  %15 = call { ptr, i8 } @_ZN4Luau16TypePackIterator4tailEv(ptr noundef nonnull align 8 dereferenceable(32) %5)
  %16 = extractvalue { ptr, i8 } %15, 1
  %17 = trunc nuw i8 %16 to i1
  br i1 %17, label %18, label %.critedge

18:                                               ; preds = %._crit_edge
  %19 = call { ptr, i8 } @_ZN4Luau16TypePackIterator4tailEv(ptr noundef nonnull align 8 dereferenceable(32) %5)
  %20 = extractvalue { ptr, i8 } %19, 0
  %21 = call noundef zeroext i1 @_ZN4Luau14isVariadicTailEPKNS_11TypePackVarERKNS_6TxnLogEb(ptr noundef %20, ptr noundef nonnull align 8 dereferenceable(128) %1, i1 noundef zeroext %3)
  br i1 %21, label %22, label %.critedge

22:                                               ; preds = %18
  store i64 %.014.lcssa, ptr %0, align 8, !tbaa !208
  br label %25

.critedge:                                        ; preds = %._crit_edge, %18
  %23 = add i64 %.0.lcssa, %.014.lcssa
  store i64 %.014.lcssa, ptr %0, align 8, !tbaa !208
  %24 = getelementptr inbounds nuw i8, ptr %0, i64 8
  store i64 %23, ptr %24, align 8, !tbaa !115
  br label %25

25:                                               ; preds = %.critedge, %22
  %.sink = phi i8 [ 1, %.critedge ], [ 0, %22 ]
  %26 = getelementptr inbounds nuw i8, ptr %0, i64 16
  store i8 %.sink, ptr %26, align 8, !tbaa !214
  call void @llvm.lifetime.end.p0(i64 32, ptr nonnull %6) #26
  call void @llvm.lifetime.end.p0(i64 32, ptr nonnull %5) #26
  ret void
}